; Function Attrs: mustprogress uwtable
define void @gguf_set_tensor_data(ptr noundef readonly captures(none) %0, ptr noundef %1, ptr noundef %2) local_unnamed_addr #2 {
  %4 = getelementptr inbounds nuw i8, ptr %0, i64 32
  %5 = getelementptr inbounds nuw i8, ptr %0, i64 40
  %6 = load ptr, ptr %5, align 8, !tbaa !75
  %7 = load ptr, ptr %4, align 8, !tbaa !46
  %8 = ptrtoint ptr %6 to i64
  %9 = ptrtoint ptr %7 to i64
  %10 = sub i64 %8, %9
  %11 = icmp sgt i64 %10, 0
  br i1 %11, label %gguf_get_tensor_name.exit.preheader.i, label %.loopexit

gguf_get_tensor_name.exit.preheader.i:            ; preds = %3
  %12 = udiv exact i64 %10, 344
  %13 = tail call i64 @llvm.umax.i64(i64 %12, i64 1)
  br label %gguf_get_tensor_name.exit.i

gguf_get_tensor_name.exit.i:                      ; preds = %17, %gguf_get_tensor_name.exit.preheader.i
  %.09.i = phi i64 [ %18, %17 ], [ 0, %gguf_get_tensor_name.exit.preheader.i ]
  %14 = getelementptr inbounds nuw %struct.gguf_tensor_info, ptr %7, i64 %.09.i, i32 0, i32 11
  %15 = tail call i32 @strcmp(ptr noundef nonnull readonly dereferenceable(1) %1, ptr noundef nonnull dereferenceable(1) %14) #27
  %16 = icmp eq i32 %15, 0
  br i1 %16, label %gguf_find_tensor.exit, label %17

17:                                               ; preds = %gguf_get_tensor_name.exit.i
  %18 = add nuw nsw i64 %.09.i, 1
  %exitcond.not.i = icmp eq i64 %18, %13
  br i1 %exitcond.not.i, label %.loopexit, label %gguf_get_tensor_name.exit.i, !llvm.loop !180

.loopexit:                                        ; preds = %17, %3
  tail call void (ptr, i32, ptr, ...) @ggml_abort(ptr noundef nonnull @.str.28, i32 noundef 1134, ptr noundef nonnull @.str.63, ptr noundef %1) #33
  unreachable

gguf_find_tensor.exit:                            ; preds = %gguf_get_tensor_name.exit.i
  %19 = getelementptr inbounds nuw %struct.gguf_tensor_info, ptr %7, i64 %.09.i, i32 0, i32 10
  store ptr %2, ptr %19, align 8, !tbaa !192
  ret void
}